target datalayout = "e-m:e-p270:32:32-p271:32:32-p272:64:64-i64:64-i128:128-f80:128-n8:16:32:64-S128"
target triple = "x86_64-pc-linux-gnu"

%struct.ImageRect = type { i32, i32, i32, i32, ptr, ptr, i32, i32, i32 }

; Function Attrs: nounwind uwtable
define hidden i32 @convertRect2(ptr noundef %0, ptr noundef %1, i32 noundef %2, ptr noundef %3) #0 {
  %5 = alloca ptr, align 8
  %6 = alloca ptr, align 8
  %7 = alloca i32, align 4
  %8 = alloca ptr, align 8
  %9 = alloca i32, align 4
  %10 = alloca i32, align 4
  %11 = alloca ptr, align 8
  %12 = alloca ptr, align 8
  %13 = alloca ptr, align 8
  %14 = alloca i32, align 4
  %15 = alloca i32, align 4
  store ptr %0, ptr %5, align 8
  store ptr %1, ptr %6, align 8
  store i32 %2, ptr %7, align 4
  store ptr %3, ptr %8, align 8
  %16 = load ptr, ptr %5, align 8
  %17 = getelementptr inbounds %struct.ImageRect, ptr %16, i32 0, i32 0
  %18 = load i32, ptr %17, align 8
  store i32 %18, ptr %9, align 4
  %19 = load ptr, ptr %5, align 8
  %20 = getelementptr inbounds %struct.ImageRect, ptr %19, i32 0, i32 1
  %21 = load i32, ptr %20, align 4
  store i32 %21, ptr %10, align 4
  %22 = load ptr, ptr %5, align 8
  %23 = getelementptr inbounds %struct.ImageRect, ptr %22, i32 0, i32 4
  %24 = load ptr, ptr %23, align 8
  store ptr %24, ptr %11, align 8
  %25 = load ptr, ptr %6, align 8
  %26 = getelementptr inbounds %struct.ImageRect, ptr %25, i32 0, i32 4
  %27 = load ptr, ptr %26, align 8
  store ptr %27, ptr %12, align 8
  store ptr null, ptr %13, align 8
  %28 = load ptr, ptr %6, align 8
  %29 = getelementptr inbounds %struct.ImageRect, ptr %28, i32 0, i32 0
  %30 = load i32, ptr %29, align 8
  %31 = load i32, ptr %9, align 4
  %32 = icmp slt i32 %30, %31
  br i1 %32, label %33, label %37

33:                                               ; preds = %4
  %34 = load ptr, ptr %6, align 8
  %35 = getelementptr inbounds %struct.ImageRect, ptr %34, i32 0, i32 0
  %36 = load i32, ptr %35, align 8
  store i32 %36, ptr %9, align 4
  br label %37

37:                                               ; preds = %33, %4
  %38 = load ptr, ptr %6, align 8
  %39 = getelementptr inbounds %struct.ImageRect, ptr %38, i32 0, i32 1
  %40 = load i32, ptr %39, align 4
  %41 = load i32, ptr %10, align 4
  %42 = icmp slt i32 %40, %41
  br i1 %42, label %43, label %47

43:                                               ; preds = %37
  %44 = load ptr, ptr %6, align 8
  %45 = getelementptr inbounds %struct.ImageRect, ptr %44, i32 0, i32 1
  %46 = load i32, ptr %45, align 4
  store i32 %46, ptr %10, align 4
  br label %47

47:                                               ; preds = %43, %37
  %48 = load ptr, ptr %8, align 8
  %49 = icmp ne ptr %48, null
  br i1 %49, label %50, label %74

50:                                               ; preds = %47
  %51 = load ptr, ptr %8, align 8
  %52 = getelementptr inbounds %struct.ImageRect, ptr %51, i32 0, i32 0
  %53 = load i32, ptr %52, align 8
  %54 = load i32, ptr %9, align 4
  %55 = icmp slt i32 %53, %54
  br i1 %55, label %56, label %60

56:                                               ; preds = %50
  %57 = load ptr, ptr %8, align 8
  %58 = getelementptr inbounds %struct.ImageRect, ptr %57, i32 0, i32 0
  %59 = load i32, ptr %58, align 8
  store i32 %59, ptr %9, align 4
  br label %60

60:                                               ; preds = %56, %50
  %61 = load ptr, ptr %8, align 8
  %62 = getelementptr inbounds %struct.ImageRect, ptr %61, i32 0, i32 1
  %63 = load i32, ptr %62, align 4
  %64 = load i32, ptr %10, align 4
  %65 = icmp slt i32 %63, %64
  br i1 %65, label %66, label %70

66:                                               ; preds = %60
  %67 = load ptr, ptr %8, align 8
  %68 = getelementptr inbounds %struct.ImageRect, ptr %67, i32 0, i32 1
  %69 = load i32, ptr %68, align 4
  store i32 %69, ptr %10, align 4
  br label %70

70:                                               ; preds = %66, %60
  %71 = load ptr, ptr %8, align 8
  %72 = getelementptr inbounds %struct.ImageRect, ptr %71, i32 0, i32 4
  %73 = load ptr, ptr %72, align 8
  store ptr %73, ptr %13, align 8
  br label %74

74:                                               ; preds = %70, %47
  %75 = load ptr, ptr %6, align 8
  %76 = getelementptr inbounds %struct.ImageRect, ptr %75, i32 0, i32 6
  %77 = load i32, ptr %76, align 8
  store i32 %77, ptr %15, align 4
  store i32 0, ptr %14, align 4
  br label %78

78:                                               ; preds = %149, %74
  %79 = load i32, ptr %14, align 4
  %80 = load i32, ptr %9, align 4
  %81 = icmp slt i32 %79, %80
  br i1 %81, label %82, label %152

82:                                               ; preds = %78
  %83 = load ptr, ptr %11, align 8
  %84 = load ptr, ptr %5, align 8
  %85 = getelementptr inbounds %struct.ImageRect, ptr %84, i32 0, i32 3
  %86 = load i32, ptr %85, align 4
  %87 = load ptr, ptr %12, align 8
  %88 = load ptr, ptr %6, align 8
  %89 = getelementptr inbounds %struct.ImageRect, ptr %88, i32 0, i32 3
  %90 = load i32, ptr %89, align 4
  %91 = load i32, ptr %10, align 4
  %92 = load ptr, ptr %5, align 8
  %93 = getelementptr inbounds %struct.ImageRect, ptr %92, i32 0, i32 5
  %94 = load ptr, ptr %93, align 8
  %95 = load ptr, ptr %6, align 8
  %96 = getelementptr inbounds %struct.ImageRect, ptr %95, i32 0, i32 5
  %97 = load ptr, ptr %96, align 8
  %98 = load i32, ptr %7, align 4
  %99 = load ptr, ptr %13, align 8
  %100 = load ptr, ptr %8, align 8
  %101 = icmp ne ptr %100, null
  br i1 %101, label %102, label %106

102:                                              ; preds = %82
  %103 = load ptr, ptr %8, align 8
  %104 = getelementptr inbounds %struct.ImageRect, ptr %103, i32 0, i32 3
  %105 = load i32, ptr %104, align 4
  br label %107

106:                                              ; preds = %82
  br label %107

107:                                              ; preds = %106, %102
  %108 = phi i32 [ %105, %102 ], [ 0, %106 ]
  %109 = load ptr, ptr %8, align 8
  %110 = icmp ne ptr %109, null
  br i1 %110, label %111, label %115

111:                                              ; preds = %107
  %112 = load ptr, ptr %8, align 8
  %113 = getelementptr inbounds %struct.ImageRect, ptr %112, i32 0, i32 5
  %114 = load ptr, ptr %113, align 8
  br label %116

115:                                              ; preds = %107
  br label %116

116:                                              ; preds = %115, %111
  %117 = phi ptr [ %114, %111 ], [ null, %115 ]
  %118 = load i32, ptr %15, align 4
  %119 = load ptr, ptr %6, align 8
  %120 = getelementptr inbounds %struct.ImageRect, ptr %119, i32 0, i32 7
  %121 = load i32, ptr %120, align 4
  call void @convertLine(ptr noundef %83, i32 noundef %86, ptr noundef %87, i32 noundef %90, i32 noundef %91, ptr noundef %94, ptr noundef %97, i32 noundef %98, ptr noundef %99, i32 noundef %108, ptr noundef %117, i32 noundef %118, i32 noundef %121)
  %122 = load ptr, ptr %11, align 8
  %123 = load ptr, ptr %5, align 8
  %124 = getelementptr inbounds %struct.ImageRect, ptr %123, i32 0, i32 2
  %125 = load i32, ptr %124, align 8
  %126 = sext i32 %125 to i64
  %127 = getelementptr inbounds i8, ptr %122, i64 %126
  store ptr %127, ptr %11, align 8
  %128 = load ptr, ptr %12, align 8
  %129 = load ptr, ptr %6, align 8
  %130 = getelementptr inbounds %struct.ImageRect, ptr %129, i32 0, i32 2
  %131 = load i32, ptr %130, align 8
  %132 = sext i32 %131 to i64
  %133 = getelementptr inbounds i8, ptr %128, i64 %132
  store ptr %133, ptr %12, align 8
  %134 = load ptr, ptr %8, align 8
  %135 = icmp ne ptr %134, null
  br i1 %135, label %136, label %143

136:                                              ; preds = %116
  %137 = load ptr, ptr %13, align 8
  %138 = load ptr, ptr %8, align 8
  %139 = getelementptr inbounds %struct.ImageRect, ptr %138, i32 0, i32 2
  %140 = load i32, ptr %139, align 8
  %141 = sext i32 %140 to i64
  %142 = getelementptr inbounds i8, ptr %137, i64 %141
  store ptr %142, ptr %13, align 8
  br label %143

143:                                              ; preds = %136, %116
  %144 = load ptr, ptr %6, align 8
  %145 = getelementptr inbounds %struct.ImageRect, ptr %144, i32 0, i32 8
  %146 = load i32, ptr %145, align 8
  %147 = load i32, ptr %15, align 4
  %148 = add nsw i32 %147, %146
  store i32 %148, ptr %15, align 4
  br label %149

149:                                              ; preds = %143
  %150 = load i32, ptr %14, align 4
  %151 = add nsw i32 %150, 1
  store i32 %151, ptr %14, align 4
  br label %78, !llvm.loop !16

152:                                              ; preds = %78
  %153 = load i32, ptr %9, align 4
  %154 = load ptr, ptr %5, align 8
  %155 = getelementptr inbounds %struct.ImageRect, ptr %154, i32 0, i32 2
  %156 = load i32, ptr %155, align 8
  %157 = mul nsw i32 %153, %156
  ret i32 %157
}

; Function Attrs: nounwind uwtable
define hidden i32 @convertRect(ptr noundef %0, ptr noundef %1, i32 noundef %2) #0 {
  %4 = alloca ptr, align 8
  %5 = alloca ptr, align 8
  %6 = alloca i32, align 4
  store ptr %0, ptr %4, align 8
  store ptr %1, ptr %5, align 8
  store i32 %2, ptr %6, align 4
  %7 = load ptr, ptr %4, align 8
  %8 = load ptr, ptr %5, align 8
  %9 = load i32, ptr %6, align 4
  %10 = call i32 @convertRect2(ptr noundef %7, ptr noundef %8, i32 noundef %9, ptr noundef null)
  ret i32 %10
}