; Function Attrs: nofree norecurse nosync nounwind memory(readwrite, inaccessiblemem: none) uwtable
define hidden i32 @convertRect(ptr nocapture noundef readonly %0, ptr nocapture noundef readonly %1, i32 noundef %2) local_unnamed_addr #2 {
  %4 = load i32, ptr %0, align 8
  %5 = getelementptr inbounds i8, ptr %0, i64 4
  %6 = load i32, ptr %5, align 4
  %7 = load i32, ptr %1, align 8
  %spec.select.i = tail call i32 @llvm.smin.i32(i32 %7, i32 %4)
  %8 = getelementptr inbounds i8, ptr %1, i64 4
  %9 = load i32, ptr %8, align 4
  %.051.i = tail call i32 @llvm.smin.i32(i32 %9, i32 %6)
  %10 = icmp sgt i32 %spec.select.i, 0
  br i1 %10, label %.thread.us.preheader.i, label %.._crit_edge_crit_edge.i

.._crit_edge_crit_edge.i:                         ; preds = %3
  %.phi.trans.insert.i = getelementptr inbounds i8, ptr %0, i64 8
  %.pre.i = load i32, ptr %.phi.trans.insert.i, align 8
  br label %convertRect2.exit

.thread.us.preheader.i:                           ; preds = %3
  %11 = getelementptr inbounds i8, ptr %1, i64 16
  %12 = load ptr, ptr %11, align 8
  %13 = getelementptr inbounds i8, ptr %0, i64 16
  %14 = load ptr, ptr %13, align 8
  %15 = getelementptr inbounds i8, ptr %1, i64 32
  %16 = load i32, ptr %15, align 8
  %17 = getelementptr inbounds i8, ptr %0, i64 12
  %18 = getelementptr inbounds i8, ptr %1, i64 12
  %19 = getelementptr inbounds i8, ptr %0, i64 24
  %20 = getelementptr inbounds i8, ptr %1, i64 24
  %21 = getelementptr inbounds i8, ptr %1, i64 36
  %22 = getelementptr inbounds i8, ptr %0, i64 8
  %23 = getelementptr inbounds i8, ptr %1, i64 8
  %24 = getelementptr inbounds i8, ptr %1, i64 40
  br label %.thread.us.i

.thread.us.i:                                     ; preds = %.thread.us.i, %.thread.us.preheader.i
  %.071.us.i = phi i32 [ %37, %.thread.us.i ], [ %16, %.thread.us.preheader.i ]
  %.04770.us.i = phi i32 [ %38, %.thread.us.i ], [ 0, %.thread.us.preheader.i ]
  %.04968.us.i = phi ptr [ %35, %.thread.us.i ], [ %12, %.thread.us.preheader.i ]
  %.05067.us.i = phi ptr [ %32, %.thread.us.i ], [ %14, %.thread.us.preheader.i ]
  %25 = load i32, ptr %17, align 4
  %26 = load i32, ptr %18, align 4
  %27 = load ptr, ptr %19, align 8
  %28 = load ptr, ptr %20, align 8
  %29 = load i32, ptr %21, align 4
  tail call void @convertLine(ptr noundef %.05067.us.i, i32 noundef %25, ptr noundef %.04968.us.i, i32 noundef %26, i32 noundef %.051.i, ptr noundef %27, ptr noundef %28, i32 noundef %2, ptr noundef null, i32 noundef 0, ptr poison, i32 noundef %.071.us.i, i32 noundef %29)
  %30 = load i32, ptr %22, align 8
  %31 = sext i32 %30 to i64
  %32 = getelementptr inbounds i8, ptr %.05067.us.i, i64 %31
  %33 = load i32, ptr %23, align 8
  %34 = sext i32 %33 to i64
  %35 = getelementptr inbounds i8, ptr %.04968.us.i, i64 %34
  %36 = load i32, ptr %24, align 8
  %37 = add nsw i32 %36, %.071.us.i
  %38 = add nuw nsw i32 %.04770.us.i, 1
  %exitcond73.not.i = icmp eq i32 %38, %spec.select.i
  br i1 %exitcond73.not.i, label %convertRect2.exit, label %.thread.us.i, !llvm.loop !17

convertRect2.exit:                                ; preds = %.thread.us.i, %.._crit_edge_crit_edge.i
  %39 = phi i32 [ %.pre.i, %.._crit_edge_crit_edge.i ], [ %30, %.thread.us.i ]
  %40 = mul nsw i32 %39, %spec.select.i
  ret i32 %40
}